target datalayout = "e-m:e-p270:32:32-p271:32:32-p272:64:64-i64:64-i128:128-f80:128-n8:16:32:64-S128"
target triple = "x86_64-unknown-linux-gnu"

%"class.v8::IndirectHandleBase" = type { ptr }
%"class.v8::Global" = type { %"class.v8::PersistentBase" }
%"class.v8::PersistentBase" = type { %"class.v8::IndirectHandleBase" }
%"class.v8::Global.0" = type { %"class.v8::PersistentBase.1" }
%"class.v8::PersistentBase.1" = type { %"class.v8::IndirectHandleBase" }
%"class.v8impl::RefTracker" = type { ptr, ptr, ptr }
%"class.std::unordered_set" = type { %"class.std::_Hashtable" }
%"class.std::_Hashtable" = type { ptr, i64, %"struct.std::__detail::_Hash_node_base", i64, %"struct.std::__detail::_Prime_rehash_policy", ptr }
%"struct.std::__detail::_Hash_node_base" = type { ptr }
%"struct.std::__detail::_Prime_rehash_policy" = type { float, i64 }
%struct.napi_extended_error_info = type { ptr, ptr, i32, i32 }
%struct.napi_env__ = type <{ ptr, ptr, %"class.v8::Global", %"class.v8::Global.0", %"class.v8impl::RefTracker", %"class.v8impl::RefTracker", %"class.std::unordered_set", %struct.napi_extended_error_info, i32, i32, i32, [4 x i8], ptr, i32, i8, [3 x i8] }>
%struct.uv__queue = type { ptr, ptr }
%"class.node::ThreadPoolWork" = type { ptr, ptr, %struct.uv_work_s, ptr }
%struct.uv_work_s = type { ptr, i32, [6 x ptr], ptr, ptr, ptr, %struct.uv__work }
%struct.uv__work = type { ptr, ptr, ptr, %struct.uv__queue }

; Function Attrs: mustprogress nounwind uwtable
define linkonce_odr dso_local noundef i32 @_Z21napi_clear_last_errorP10napi_env__(ptr noundef %env) #4 comdat {
entry:
  %env.addr = alloca ptr, align 8
  store ptr %env, ptr %env.addr, align 8
  %0 = load ptr, ptr %env.addr, align 8
  %last_error = getelementptr inbounds %struct.napi_env__, ptr %0, i32 0, i32 7
  %error_code = getelementptr inbounds %struct.napi_extended_error_info, ptr %last_error, i32 0, i32 3
  store i32 0, ptr %error_code, align 4
  %1 = load ptr, ptr %env.addr, align 8
  %last_error1 = getelementptr inbounds %struct.napi_env__, ptr %1, i32 0, i32 7
  %engine_error_code = getelementptr inbounds %struct.napi_extended_error_info, ptr %last_error1, i32 0, i32 2
  store i32 0, ptr %engine_error_code, align 8
  %2 = load ptr, ptr %env.addr, align 8
  %last_error2 = getelementptr inbounds %struct.napi_env__, ptr %2, i32 0, i32 7
  %engine_reserved = getelementptr inbounds %struct.napi_extended_error_info, ptr %last_error2, i32 0, i32 1
  store ptr null, ptr %engine_reserved, align 8
  %3 = load ptr, ptr %env.addr, align 8
  %last_error3 = getelementptr inbounds %struct.napi_env__, ptr %3, i32 0, i32 7
  %error_message = getelementptr inbounds %struct.napi_extended_error_info, ptr %last_error3, i32 0, i32 0
  store ptr null, ptr %error_message, align 8
  ret i32 0
}

; Function Attrs: mustprogress nounwind uwtable
define internal noundef i32 @_ZN12_GLOBAL__N_16uvimpl18ConvertUVErrorCodeEi(i32 noundef %code) #4 {
entry:
  %retval = alloca i32, align 4
  %code.addr = alloca i32, align 4
  store i32 %code, ptr %code.addr, align 4
  %0 = load i32, ptr %code.addr, align 4
  switch i32 %0, label %sw.default [
    i32 0, label %sw.bb
    i32 -22, label %sw.bb1
    i32 -125, label %sw.bb2
  ]

sw.bb:                                            ; preds = %entry
  store i32 0, ptr %retval, align 4
  br label %return

sw.bb1:                                           ; preds = %entry
  store i32 1, ptr %retval, align 4
  br label %return

sw.bb2:                                           ; preds = %entry
  store i32 11, ptr %retval, align 4
  br label %return

sw.default:                                       ; preds = %entry
  store i32 9, ptr %retval, align 4
  br label %return

return:                                           ; preds = %sw.default, %sw.bb2, %sw.bb1, %sw.bb
  %1 = load i32, ptr %retval, align 4
  ret i32 %1
}

; Function Attrs: mustprogress nounwind uwtable
define linkonce_odr dso_local noundef i32 @_ZN4node14ThreadPoolWork10CancelWorkEv(ptr noundef nonnull align 8 dereferenceable(152) %this) #4 comdat align 2 {
entry:
  %this.addr = alloca ptr, align 8
  store ptr %this, ptr %this.addr, align 8
  %this1 = load ptr, ptr %this.addr, align 8
  %work_req_ = getelementptr inbounds %"class.node::ThreadPoolWork", ptr %this1, i32 0, i32 2
  %call = call i32 @uv_cancel(ptr noundef %work_req_)
  ret i32 %call
}

; Function Attrs: mustprogress nounwind uwtable
define linkonce_odr dso_local noundef i32 @_Z19napi_set_last_errorP10napi_env__11napi_statusjPv(ptr noundef %env, i32 noundef %error_code, i32 noundef %engine_error_code, ptr noundef %engine_reserved) #4 comdat {
entry:
  %env.addr = alloca ptr, align 8
  %error_code.addr = alloca i32, align 4
  %engine_error_code.addr = alloca i32, align 4
  %engine_reserved.addr = alloca ptr, align 8
  store ptr %env, ptr %env.addr, align 8
  store i32 %error_code, ptr %error_code.addr, align 4
  store i32 %engine_error_code, ptr %engine_error_code.addr, align 4
  store ptr %engine_reserved, ptr %engine_reserved.addr, align 8
  %0 = load i32, ptr %error_code.addr, align 4
  %1 = load ptr, ptr %env.addr, align 8
  %last_error = getelementptr inbounds %struct.napi_env__, ptr %1, i32 0, i32 7
  %error_code1 = getelementptr inbounds %struct.napi_extended_error_info, ptr %last_error, i32 0, i32 3
  store i32 %0, ptr %error_code1, align 4
  %2 = load i32, ptr %engine_error_code.addr, align 4
  %3 = load ptr, ptr %env.addr, align 8
  %last_error2 = getelementptr inbounds %struct.napi_env__, ptr %3, i32 0, i32 7
  %engine_error_code3 = getelementptr inbounds %struct.napi_extended_error_info, ptr %last_error2, i32 0, i32 2
  store i32 %2, ptr %engine_error_code3, align 8
  %4 = load ptr, ptr %engine_reserved.addr, align 8
  %5 = load ptr, ptr %env.addr, align 8
  %last_error4 = getelementptr inbounds %struct.napi_env__, ptr %5, i32 0, i32 7
  %engine_reserved5 = getelementptr inbounds %struct.napi_extended_error_info, ptr %last_error4, i32 0, i32 1
  store ptr %4, ptr %engine_reserved5, align 8
  %6 = load i32, ptr %error_code.addr, align 4
  ret i32 %6
}

; Function Attrs: mustprogress nounwind uwtable
define dso_local i32 @napi_cancel_async_work(ptr noundef %env, ptr noundef %work) #4 {
entry:
  %retval = alloca i32, align 4
  %env.addr = alloca ptr, align 8
  %work.addr = alloca ptr, align 8
  %w = alloca ptr, align 8
  %result = alloca i32, align 4
  %status = alloca i32, align 4
  store ptr %env, ptr %env.addr, align 8
  store ptr %work, ptr %work.addr, align 8
  br label %do.body

do.body:                                          ; preds = %entry
  %0 = load ptr, ptr %env.addr, align 8
  %cmp = icmp eq ptr %0, null
  br i1 %cmp, label %if.then, label %if.end

if.then:                                          ; preds = %do.body
  store i32 1, ptr %retval, align 4
  br label %return

if.end:                                           ; preds = %do.body
  br label %do.end

do.end:                                           ; preds = %if.end
  br label %do.body1

do.body1:                                         ; preds = %do.end
  %1 = load ptr, ptr %work.addr, align 8
  %cmp2 = icmp ne ptr %1, null
  br i1 %cmp2, label %if.end4, label %if.then3

if.then3:                                         ; preds = %do.body1
  %2 = load ptr, ptr %env.addr, align 8
  %call = call noundef i32 @_Z19napi_set_last_errorP10napi_env__11napi_statusjPv(ptr noundef %2, i32 noundef 1, i32 noundef 0, ptr noundef null)
  store i32 %call, ptr %retval, align 4
  br label %return

if.end4:                                          ; preds = %do.body1
  br label %do.end5

do.end5:                                          ; preds = %if.end4
  %3 = load ptr, ptr %work.addr, align 8
  store ptr %3, ptr %w, align 8
  br label %do.body6

do.body6:                                         ; preds = %do.end5
  %4 = load ptr, ptr %w, align 8
  %add.ptr = getelementptr inbounds i8, ptr %4, i64 40
  %call7 = call noundef i32 @_ZN4node14ThreadPoolWork10CancelWorkEv(ptr noundef nonnull align 8 dereferenceable(152) %add.ptr)
  store i32 %call7, ptr %result, align 4
  %5 = load i32, ptr %result, align 4
  %call8 = call noundef i32 @_ZN12_GLOBAL__N_16uvimpl18ConvertUVErrorCodeEi(i32 noundef %5)
  store i32 %call8, ptr %status, align 4
  %6 = load i32, ptr %status, align 4
  %cmp9 = icmp ne i32 %6, 0
  br i1 %cmp9, label %if.then10, label %if.end12

if.then10:                                        ; preds = %do.body6
  %7 = load ptr, ptr %env.addr, align 8
  %8 = load i32, ptr %status, align 4
  %9 = load i32, ptr %result, align 4
  %call11 = call noundef i32 @_Z19napi_set_last_errorP10napi_env__11napi_statusjPv(ptr noundef %7, i32 noundef %8, i32 noundef %9, ptr noundef null)
  store i32 %call11, ptr %retval, align 4
  br label %return

if.end12:                                         ; preds = %do.body6
  br label %do.end13

do.end13:                                         ; preds = %if.end12
  %10 = load ptr, ptr %env.addr, align 8
  %call14 = call noundef i32 @_Z21napi_clear_last_errorP10napi_env__(ptr noundef %10)
  store i32 %call14, ptr %retval, align 4
  br label %return

return:                                           ; preds = %do.end13, %if.then10, %if.then3, %if.then
  %11 = load i32, ptr %retval, align 4
  ret i32 %11
}