; Function Attrs: mustprogress nounwind uwtable
define dso_local noundef i32 @napi_cancel_async_work(ptr noundef writeonly %env, ptr noundef %work) local_unnamed_addr #3 {
entry:
  %cmp = icmp eq ptr %env, null
  br i1 %cmp, label %return, label %do.body1

do.body1:                                         ; preds = %entry
  %cmp2.not = icmp eq ptr %work, null
  br i1 %cmp2.not, label %if.then3, label %do.end5

if.then3:                                         ; preds = %do.body1
  %error_code1.i = getelementptr inbounds i8, ptr %env, i64 156
  store i32 1, ptr %error_code1.i, align 4
  %engine_error_code3.i = getelementptr inbounds i8, ptr %env, i64 152
  store i32 0, ptr %engine_error_code3.i, align 8
  %engine_reserved5.i = getelementptr inbounds i8, ptr %env, i64 144
  store ptr null, ptr %engine_reserved5.i, align 8
  br label %return

do.end5:                                          ; preds = %do.body1
  %work_req_.i = getelementptr inbounds i8, ptr %work, i64 56
  %call.i = tail call noundef i32 @uv_cancel(ptr noundef nonnull %work_req_.i) #21
  switch i32 %call.i, label %sw.default.i [
    i32 0, label %do.end13
    i32 -22, label %if.then10
    i32 -125, label %sw.bb2.i
  ]

sw.bb2.i:                                         ; preds = %do.end5
  br label %if.then10

sw.default.i:                                     ; preds = %do.end5
  br label %if.then10

if.then10:                                        ; preds = %do.end5, %sw.default.i, %sw.bb2.i
  %retval.0.i.ph = phi i32 [ 11, %sw.bb2.i ], [ 9, %sw.default.i ], [ 1, %do.end5 ]
  %error_code1.i7 = getelementptr inbounds i8, ptr %env, i64 156
  store i32 %retval.0.i.ph, ptr %error_code1.i7, align 4
  %engine_error_code3.i8 = getelementptr inbounds i8, ptr %env, i64 152
  store i32 %call.i, ptr %engine_error_code3.i8, align 8
  %engine_reserved5.i9 = getelementptr inbounds i8, ptr %env, i64 144
  store ptr null, ptr %engine_reserved5.i9, align 8
  br label %return

do.end13:                                         ; preds = %do.end5
  %last_error.i = getelementptr inbounds i8, ptr %env, i64 136
  tail call void @llvm.memset.p0.i64(ptr noundef nonnull align 8 dereferenceable(24) %last_error.i, i8 0, i64 24, i1 false)
  br label %return

return:                                           ; preds = %entry, %do.end13, %if.then10, %if.then3
  %retval.0 = phi i32 [ %retval.0.i.ph, %if.then10 ], [ 0, %do.end13 ], [ 1, %if.then3 ], [ 1, %entry ]
  ret i32 %retval.0
}